target datalayout = "e-m:e-p270:32:32-p271:32:32-p272:64:64-i64:64-i128:128-f80:128-n8:16:32:64-S128"
target triple = "x86_64-pc-linux-gnu"

%struct.expert_field = type { i32, i32 }
%struct.MessageHeader = type { [4 x i8], %struct.Version, i8, i8, i32, i32, i32, ptr }
%struct.Version = type { i8, i8 }

@hf_GIAS_OrderMgr_order_properties_loop = internal global i32 0, align 4
@hf_UCO_NameValue_aname = internal global i32 0, align 4
@ei_gias_unknown_giop_msg = internal global %struct.expert_field zeroinitializer, align 4
@ei_gias_unknown_exception = internal global %struct.expert_field zeroinitializer, align 4
@ett_giop_struct = internal global i32 0, align 4
@ett_giop_sequence = internal global i32 0, align 4
@boundary = internal global i32 12, align 4
@.str.826 = private unnamed_addr constant [21 x i8] c"Unknown exception %d\00", align 1
@.str.827 = private unnamed_addr constant [24 x i8] c"Unknown GIOP message %d\00", align 1
@.str.855 = private unnamed_addr constant [21 x i8] c"struct UCO_NameValue\00", align 1
@.str.935 = private unnamed_addr constant [26 x i8] c"struct GIAS_OrderContents\00", align 1
@.str.936 = private unnamed_addr constant [40 x i8] c"sequence GIAS_OrderMgr_order_properties\00", align 1

; Function Attrs: null_pointer_is_valid sspstrong uwtable
define internal void @decode_UCO_NameValue_st(ptr noundef %0, ptr noundef %1, ptr noundef %2, ptr noundef %3, ptr noundef %4, ptr noundef %5, ptr noundef %6, i1 noundef zeroext %7) #0 {
  %9 = alloca ptr, align 8
  %10 = alloca ptr, align 8
  %11 = alloca ptr, align 8
  %12 = alloca ptr, align 8
  %13 = alloca ptr, align 8
  %14 = alloca ptr, align 8
  %15 = alloca ptr, align 8
  %16 = alloca i8, align 1
  store ptr %0, ptr %9, align 8
  store ptr %1, ptr %10, align 8
  store ptr %2, ptr %11, align 8
  store ptr %3, ptr %12, align 8
  store ptr %4, ptr %13, align 8
  store ptr %5, ptr %14, align 8
  store ptr %6, ptr %15, align 8
  %17 = zext i1 %7 to i8
  store i8 %17, ptr %16, align 1
  %18 = load ptr, ptr %11, align 8
  %19 = load ptr, ptr %9, align 8
  %20 = load ptr, ptr %13, align 8
  %21 = load i8, ptr %16, align 1, !range !6, !noundef !7
  %22 = trunc i8 %21 to i1
  %23 = load i32, ptr @boundary, align 4
  %24 = load i32, ptr @hf_UCO_NameValue_aname, align 4
  call void @giop_add_CDR_string(ptr noundef %18, ptr noundef %19, ptr noundef %20, i1 noundef zeroext %22, i32 noundef %23, i32 noundef %24)
  %25 = load ptr, ptr %9, align 8
  %26 = load ptr, ptr %10, align 8
  %27 = load ptr, ptr %11, align 8
  %28 = load ptr, ptr %12, align 8
  %29 = load ptr, ptr %13, align 8
  %30 = load i8, ptr %16, align 1, !range !6, !noundef !7
  %31 = trunc i8 %30 to i1
  %32 = load i32, ptr @boundary, align 4
  %33 = load ptr, ptr %14, align 8
  call void @get_CDR_any(ptr noundef %25, ptr noundef %26, ptr noundef %27, ptr noundef %28, ptr noundef %29, i1 noundef zeroext %31, i32 noundef %32, ptr noundef %33)
  ret void
}

; Function Attrs: null_pointer_is_valid sspstrong uwtable
define internal void @decode_GIAS_OrderMgr_order(ptr noundef %0, ptr noundef %1, ptr noundef %2, ptr noundef %3, ptr noundef %4, ptr noundef %5, ptr noundef %6, i1 noundef zeroext %7) #0 {
  %9 = alloca ptr, align 8
  %10 = alloca ptr, align 8
  %11 = alloca ptr, align 8
  %12 = alloca ptr, align 8
  %13 = alloca ptr, align 8
  %14 = alloca ptr, align 8
  %15 = alloca ptr, align 8
  %16 = alloca i8, align 1
  %17 = alloca i32, align 4
  %18 = alloca i32, align 4
  %19 = alloca ptr, align 8
  %20 = alloca ptr, align 8
  %21 = alloca ptr, align 8
  store ptr %0, ptr %9, align 8
  store ptr %1, ptr %10, align 8
  store ptr %2, ptr %11, align 8
  store ptr %3, ptr %12, align 8
  store ptr %4, ptr %13, align 8
  store ptr %5, ptr %14, align 8
  store ptr %6, ptr %15, align 8
  %22 = zext i1 %7 to i8
  store i8 %22, ptr %16, align 1
  call void @llvm.lifetime.start.p0(i64 4, ptr %17) #6
  call void @llvm.lifetime.start.p0(i64 4, ptr %18) #6
  %23 = load ptr, ptr %14, align 8
  %24 = getelementptr inbounds nuw %struct.MessageHeader, ptr %23, i32 0, i32 3
  %25 = load i8, ptr %24, align 1
  %26 = zext i8 %25 to i32
  switch i32 %26, label %109 [
    i32 0, label %27
    i32 1, label %89
  ]

27:                                               ; preds = %8
  call void @llvm.lifetime.start.p0(i64 8, ptr %19) #6
  %28 = load ptr, ptr %11, align 8
  %29 = load ptr, ptr %9, align 8
  %30 = load ptr, ptr %13, align 8
  %31 = load i32, ptr %30, align 4
  %32 = load i32, ptr @ett_giop_struct, align 4
  %33 = call ptr @proto_tree_add_subtree(ptr noundef %28, ptr noundef %29, i32 noundef %31, i32 noundef -1, i32 noundef %32, ptr noundef null, ptr noundef @.str.935)
  store ptr %33, ptr %19, align 8
  %34 = load ptr, ptr %9, align 8
  %35 = load ptr, ptr %10, align 8
  %36 = load ptr, ptr %19, align 8
  %37 = load ptr, ptr %12, align 8
  %38 = load ptr, ptr %13, align 8
  %39 = load ptr, ptr %14, align 8
  %40 = load ptr, ptr %15, align 8
  %41 = load i8, ptr %16, align 1, !range !6, !noundef !7
  %42 = trunc i8 %41 to i1
  call void @decode_GIAS_OrderContents_st(ptr noundef %34, ptr noundef %35, ptr noundef %36, ptr noundef %37, ptr noundef %38, ptr noundef %39, ptr noundef %40, i1 noundef zeroext %42)
  call void @llvm.lifetime.end.p0(i64 8, ptr %19) #6
  %43 = load ptr, ptr %9, align 8
  %44 = load ptr, ptr %13, align 8
  %45 = load i8, ptr %16, align 1, !range !6, !noundef !7
  %46 = trunc i8 %45 to i1
  %47 = load i32, ptr @boundary, align 4
  %48 = call i32 @get_CDR_ulong(ptr noundef %43, ptr noundef %44, i1 noundef zeroext %46, i32 noundef %47)
  store i32 %48, ptr %17, align 4
  %49 = load ptr, ptr %11, align 8
  %50 = load i32, ptr @hf_GIAS_OrderMgr_order_properties_loop, align 4
  %51 = load ptr, ptr %9, align 8
  %52 = load ptr, ptr %13, align 8
  %53 = load i32, ptr %52, align 4
  %54 = sub i32 %53, 4
  %55 = load i32, ptr %17, align 4
  %56 = call ptr @proto_tree_add_uint(ptr noundef %49, i32 noundef %50, ptr noundef %51, i32 noundef %54, i32 noundef 4, i32 noundef %55)
  call void @llvm.lifetime.start.p0(i64 8, ptr %20) #6
  %57 = load ptr, ptr %11, align 8
  store ptr %57, ptr %20, align 8
  %58 = load ptr, ptr %11, align 8
  %59 = load ptr, ptr %9, align 8
  %60 = load ptr, ptr %13, align 8
  %61 = load i32, ptr %60, align 4
  %62 = load i32, ptr @ett_giop_sequence, align 4
  %63 = call ptr @proto_tree_add_subtree(ptr noundef %58, ptr noundef %59, i32 noundef %61, i32 noundef -1, i32 noundef %62, ptr noundef null, ptr noundef @.str.936)
  store ptr %63, ptr %11, align 8
  store i32 0, ptr %18, align 4
  br label %64

64:                                               ; preds = %84, %27
  %65 = load i32, ptr %18, align 4
  %66 = load i32, ptr %17, align 4
  %67 = icmp ult i32 %65, %66
  br i1 %67, label %68, label %87

68:                                               ; preds = %64
  call void @llvm.lifetime.start.p0(i64 8, ptr %21) #6
  %69 = load ptr, ptr %11, align 8
  %70 = load ptr, ptr %9, align 8
  %71 = load ptr, ptr %13, align 8
  %72 = load i32, ptr %71, align 4
  %73 = load i32, ptr @ett_giop_struct, align 4
  %74 = call ptr @proto_tree_add_subtree(ptr noundef %69, ptr noundef %70, i32 noundef %72, i32 noundef -1, i32 noundef %73, ptr noundef null, ptr noundef @.str.855)
  store ptr %74, ptr %21, align 8
  %75 = load ptr, ptr %9, align 8
  %76 = load ptr, ptr %10, align 8
  %77 = load ptr, ptr %21, align 8
  %78 = load ptr, ptr %12, align 8
  %79 = load ptr, ptr %13, align 8
  %80 = load ptr, ptr %14, align 8
  %81 = load ptr, ptr %15, align 8
  %82 = load i8, ptr %16, align 1, !range !6, !noundef !7
  %83 = trunc i8 %82 to i1
  call void @decode_UCO_NameValue_st(ptr noundef %75, ptr noundef %76, ptr noundef %77, ptr noundef %78, ptr noundef %79, ptr noundef %80, ptr noundef %81, i1 noundef zeroext %83)
  call void @llvm.lifetime.end.p0(i64 8, ptr %21) #6
  br label %84

84:                                               ; preds = %68
  %85 = load i32, ptr %18, align 4
  %86 = add i32 %85, 1
  store i32 %86, ptr %18, align 4
  br label %64, !llvm.loop !60

87:                                               ; preds = %64
  %88 = load ptr, ptr %20, align 8
  store ptr %88, ptr %11, align 8
  call void @llvm.lifetime.end.p0(i64 8, ptr %20) #6
  br label %117

89:                                               ; preds = %8
  %90 = load ptr, ptr %14, align 8
  %91 = getelementptr inbounds nuw %struct.MessageHeader, ptr %90, i32 0, i32 6
  %92 = load i32, ptr %91, align 8
  switch i32 %92, label %101 [
    i32 0, label %93
    i32 1, label %108
  ]

93:                                               ; preds = %89
  %94 = load ptr, ptr %9, align 8
  %95 = load ptr, ptr %10, align 8
  %96 = load ptr, ptr %11, align 8
  %97 = load ptr, ptr %13, align 8
  %98 = load i8, ptr %16, align 1, !range !6, !noundef !7
  %99 = trunc i8 %98 to i1
  %100 = load i32, ptr @boundary, align 4
  call void @get_CDR_object(ptr noundef %94, ptr noundef %95, ptr noundef %96, ptr noundef %97, i1 noundef zeroext %99, i32 noundef %100)
  br label %108

101:                                              ; preds = %89
  %102 = load ptr, ptr %10, align 8
  %103 = load ptr, ptr %12, align 8
  %104 = load ptr, ptr %14, align 8
  %105 = getelementptr inbounds nuw %struct.MessageHeader, ptr %104, i32 0, i32 6
  %106 = load i32, ptr %105, align 8
  %107 = call ptr (ptr, ptr, ptr, ptr, ...) @expert_add_info_format(ptr noundef %102, ptr noundef %103, ptr noundef @ei_gias_unknown_exception, ptr noundef @.str.826, i32 noundef %106)
  br label %108

108:                                              ; preds = %101, %89, %93
  br label %117

109:                                              ; preds = %8
  %110 = load ptr, ptr %10, align 8
  %111 = load ptr, ptr %12, align 8
  %112 = load ptr, ptr %14, align 8
  %113 = getelementptr inbounds nuw %struct.MessageHeader, ptr %112, i32 0, i32 3
  %114 = load i8, ptr %113, align 1
  %115 = zext i8 %114 to i32
  %116 = call ptr (ptr, ptr, ptr, ptr, ...) @expert_add_info_format(ptr noundef %110, ptr noundef %111, ptr noundef @ei_gias_unknown_giop_msg, ptr noundef @.str.827, i32 noundef %115)
  br label %117

117:                                              ; preds = %109, %108, %87
  call void @llvm.lifetime.end.p0(i64 4, ptr %18) #6
  call void @llvm.lifetime.end.p0(i64 4, ptr %17) #6
  ret void
}